; Function Attrs: mustprogress uwtable
define hidden void @_ZN3sat4drat3addENS_7literalES1_NS_6statusE(ptr noundef nonnull align 8 dereferenceable(664) %this, i32 %l1.coerce, i32 %l2.coerce, ptr nocapture noundef readonly %st) local_unnamed_addr #3 align 2 {
entry:
  %buffer.i = alloca [10000 x i8], align 16
  %ls = alloca [2 x %"class.sat::literal"], align 4
  %agg.tmp = alloca %"class.sat::status", align 8
  %agg.tmp16 = alloca %"class.sat::status", align 8
  %agg.tmp24 = alloca %"class.sat::status", align 8
  %0 = load i32, ptr %st, align 8
  %cmp.i = icmp eq i32 %0, 3
  br i1 %cmp.i, label %if.then, label %if.else

if.then:                                          ; preds = %entry
  %m_num_del = getelementptr inbounds i8, ptr %this, i64 660
  %1 = load i32, ptr %m_num_del, align 4
  %inc = add i32 %1, 1
  store i32 %inc, ptr %m_num_del, align 4
  br label %if.end

if.else:                                          ; preds = %entry
  %m_num_add = getelementptr inbounds i8, ptr %this, i64 656
  %2 = load i32, ptr %m_num_add, align 8
  %inc4 = add i32 %2, 1
  store i32 %inc4, ptr %m_num_add, align 8
  br label %if.end

if.end:                                           ; preds = %if.else, %if.then
  store i32 %l1.coerce, ptr %ls, align 4
  %arrayinit.element = getelementptr inbounds i8, ptr %ls, i64 4
  store i32 %l2.coerce, ptr %arrayinit.element, align 4
  %m_out = getelementptr inbounds i8, ptr %this, i64 592
  %3 = load ptr, ptr %m_out, align 8
  %tobool.not = icmp eq ptr %3, null
  br i1 %tobool.not, label %if.end6, label %if.then5

if.then5:                                         ; preds = %if.end
  %4 = load <2 x i32>, ptr %st, align 8
  store <2 x i32> %4, ptr %agg.tmp, align 8
  %m_hint.i = getelementptr inbounds i8, ptr %agg.tmp, i64 8
  %m_hint4.i = getelementptr inbounds i8, ptr %st, i64 8
  %5 = load ptr, ptr %m_hint4.i, align 8
  store ptr %5, ptr %m_hint.i, align 8
  call void @_ZN3sat4drat4dumpEjPKNS_7literalENS_6statusE(ptr noundef nonnull align 8 dereferenceable(664) %this, i32 noundef 2, ptr noundef nonnull %ls, ptr noundef nonnull %agg.tmp)
  br label %if.end6

if.end6:                                          ; preds = %if.then5, %if.end
  %m_bout = getelementptr inbounds i8, ptr %this, i64 600
  %6 = load ptr, ptr %m_bout, align 8
  %tobool7.not = icmp eq ptr %6, null
  br i1 %tobool7.not, label %if.end11, label %if.then8

if.then8:                                         ; preds = %if.end6
  %7 = load i32, ptr %st, align 8
  call void @llvm.lifetime.start.p0(i64 10000, ptr nonnull %buffer.i)
  switch i32 %7, label %_ZN3sat4drat5bdumpEjPKNS_7literalENS_6statusE.exit [
    i32 2, label %if.end5.i
    i32 3, label %if.end5.fold.split.i
  ]

if.end5.fold.split.i:                             ; preds = %if.then8
  br label %if.end5.i

if.end5.i:                                        ; preds = %if.end5.fold.split.i, %if.then8
  %ch.0.i = phi i8 [ 97, %if.then8 ], [ 100, %if.end5.fold.split.i ]
  store i8 %ch.0.i, ptr %buffer.i, align 16
  br label %for.body.i

for.body.i:                                       ; preds = %for.inc.i, %if.end5.i
  %indvars.iv.i = phi i64 [ 0, %if.end5.i ], [ %indvars.iv.next.i, %for.inc.i ]
  %len.016.i = phi i32 [ 1, %if.end5.i ], [ %len.2.i, %for.inc.i ]
  %arrayidx7.i = getelementptr inbounds %"class.sat::literal", ptr %ls, i64 %indvars.iv.i
  %8 = load i32, ptr %arrayidx7.i, align 4
  br label %do.body.i

do.body.i:                                        ; preds = %do.cond.i, %for.body.i
  %len.1.i = phi i32 [ %len.016.i, %for.body.i ], [ %len.2.i, %do.cond.i ]
  %v.0.i = phi i32 [ %8, %for.body.i ], [ %shr.i, %do.cond.i ]
  %conv.i = trunc i32 %v.0.i to i8
  %shr.i = lshr i32 %v.0.i, 7
  %tobool.not.i = icmp ult i32 %v.0.i, 128
  %conv12.i = or i8 %conv.i, -128
  %ch.1.i = select i1 %tobool.not.i, i8 %conv.i, i8 %conv12.i
  %inc14.i = add nsw i32 %len.1.i, 1
  %idxprom15.i = sext i32 %len.1.i to i64
  %arrayidx16.i = getelementptr inbounds [10000 x i8], ptr %buffer.i, i64 0, i64 %idxprom15.i
  store i8 %ch.1.i, ptr %arrayidx16.i, align 1
  %cmp18.i = icmp eq i32 %inc14.i, 10000
  br i1 %cmp18.i, label %if.then19.i, label %do.cond.i

if.then19.i:                                      ; preds = %do.body.i
  %9 = load ptr, ptr %m_bout, align 8
  %call21.i = call noundef nonnull align 8 dereferenceable(8) ptr @_ZNSo5writeEPKcl(ptr noundef nonnull align 8 dereferenceable(8) %9, ptr noundef nonnull %buffer.i, i64 noundef 10000)
  br label %do.cond.i

do.cond.i:                                        ; preds = %if.then19.i, %do.body.i
  %len.2.i = phi i32 [ 0, %if.then19.i ], [ %inc14.i, %do.body.i ]
  br i1 %tobool.not.i, label %for.inc.i, label %do.body.i, !llvm.loop !9

for.inc.i:                                        ; preds = %do.cond.i
  %indvars.iv.next.i = add nuw nsw i64 %indvars.iv.i, 1
  %exitcond.not.i = icmp eq i64 %indvars.iv.next.i, 2
  br i1 %exitcond.not.i, label %for.end.i, label %for.body.i, !llvm.loop !10

for.end.i:                                        ; preds = %for.inc.i
  %inc25.i = add nsw i32 %len.2.i, 1
  %idxprom26.i = sext i32 %len.2.i to i64
  %arrayidx27.i = getelementptr inbounds [10000 x i8], ptr %buffer.i, i64 0, i64 %idxprom26.i
  store i8 0, ptr %arrayidx27.i, align 1
  %10 = load ptr, ptr %m_bout, align 8
  %conv30.i = sext i32 %inc25.i to i64
  %call31.i = call noundef nonnull align 8 dereferenceable(8) ptr @_ZNSo5writeEPKcl(ptr noundef nonnull align 8 dereferenceable(8) %10, ptr noundef nonnull %buffer.i, i64 noundef %conv30.i)
  br label %_ZN3sat4drat5bdumpEjPKNS_7literalENS_6statusE.exit

_ZN3sat4drat5bdumpEjPKNS_7literalENS_6statusE.exit: ; preds = %if.then8, %for.end.i
  call void @llvm.lifetime.end.p0(i64 10000, ptr nonnull %buffer.i)
  br label %if.end11

if.end11:                                         ; preds = %_ZN3sat4drat5bdumpEjPKNS_7literalENS_6statusE.exit, %if.end6
  %m_check = getelementptr inbounds i8, ptr %this, i64 643
  %11 = load i8, ptr %m_check, align 1
  %12 = and i8 %11, 1
  %tobool12.not = icmp eq i8 %12, 0
  br i1 %tobool12.not, label %if.end19, label %if.then13

if.then13:                                        ; preds = %if.end11
  %13 = load <2 x i32>, ptr %st, align 8
  store <2 x i32> %13, ptr %agg.tmp16, align 8
  %m_hint.i7 = getelementptr inbounds i8, ptr %agg.tmp16, i64 8
  %m_hint4.i8 = getelementptr inbounds i8, ptr %st, i64 8
  %14 = load ptr, ptr %m_hint4.i8, align 8
  store ptr %14, ptr %m_hint.i7, align 8
  call void @_ZN3sat4drat6appendENS_7literalES1_NS_6statusE(ptr noundef nonnull align 8 dereferenceable(664) %this, i32 %l1.coerce, i32 %l2.coerce, ptr noundef nonnull %agg.tmp16)
  br label %if.end19

if.end19:                                         ; preds = %if.then13, %if.end11
  %15 = load ptr, ptr %this, align 8
  %tobool20.not = icmp eq ptr %15, null
  br i1 %tobool20.not, label %if.end25, label %if.then21

if.then21:                                        ; preds = %if.end19
  %16 = load <2 x i32>, ptr %st, align 8
  store <2 x i32> %16, ptr %agg.tmp24, align 8
  %m_hint.i11 = getelementptr inbounds i8, ptr %agg.tmp24, i64 8
  %m_hint4.i12 = getelementptr inbounds i8, ptr %st, i64 8
  %17 = load ptr, ptr %m_hint4.i12, align 8
  store ptr %17, ptr %m_hint.i11, align 8
  %vtable = load ptr, ptr %15, align 8
  %vfn = getelementptr inbounds i8, ptr %vtable, i64 16
  %18 = load ptr, ptr %vfn, align 8
  call void %18(ptr noundef nonnull align 8 dereferenceable(8) %15, i32 noundef 2, ptr noundef nonnull %ls, ptr noundef nonnull %agg.tmp24)
  br label %if.end25

if.end25:                                         ; preds = %if.then21, %if.end19
  ret void
}